target datalayout = "e-m:e-p270:32:32-p271:32:32-p272:64:64-i64:64-i128:128-f80:128-n8:16:32:64-S128"
target triple = "x86_64-pc-linux-gnu"

%"class.icu_77::Normalizer" = type <{ %"class.icu_77::UObject", ptr, ptr, i32, i32, ptr, i32, i32, %"class.icu_77::UnicodeString", i32, [4 x i8] }>
%"class.icu_77::UObject" = type { ptr }
%"class.icu_77::UnicodeString" = type { %"class.icu_77::Replaceable", %"union.icu_77::UnicodeString::StackBufferOrFields" }
%"class.icu_77::Replaceable" = type { %"class.icu_77::UObject" }
%"union.icu_77::UnicodeString::StackBufferOrFields" = type { %struct.anon.0, [32 x i8] }
%struct.anon.0 = type { i16, i32, i32, ptr }

@_ZTVN6icu_7710NormalizerE = unnamed_addr constant { [5 x ptr] } { [5 x ptr] [ptr null, ptr @_ZTIN6icu_7710NormalizerE, ptr @_ZN6icu_7710NormalizerD1Ev, ptr @_ZN6icu_7710NormalizerD0Ev, ptr @_ZNK6icu_7710Normalizer17getDynamicClassIDEv] }, align 8
@_ZTVN6icu_777UObjectE = available_externally unnamed_addr constant { [5 x ptr] } { [5 x ptr] [ptr null, ptr @_ZTIN6icu_777UObjectE, ptr @_ZN6icu_777UObjectD1Ev, ptr @_ZN6icu_777UObjectD0Ev, ptr @_ZNK6icu_777UObject17getDynamicClassIDEv] }, align 8

; Function Attrs: inlinehint mustprogress nounwind uwtable
define linkonce_odr void @_ZN6icu_777UObjectC2ERKS0_(ptr noundef nonnull align 8 dereferenceable(8) %0, ptr noundef nonnull align 8 dereferenceable(8) %1) unnamed_addr #3 comdat align 2 {
  %3 = alloca ptr, align 8
  %4 = alloca ptr, align 8
  store ptr %0, ptr %3, align 8, !tbaa !30
  store ptr %1, ptr %4, align 8, !tbaa !30
  %5 = load ptr, ptr %3, align 8
  store ptr getelementptr inbounds inrange(-16, 24) ({ [5 x ptr] }, ptr @_ZTVN6icu_777UObjectE, i32 0, i32 0, i32 2), ptr %5, align 8, !tbaa !12
  ret void
}

; Function Attrs: mustprogress uwtable
define void @_ZN6icu_7710NormalizerC2ERKS0_(ptr noundef nonnull align 8 dereferenceable(116) %0, ptr noundef nonnull align 8 dereferenceable(116) %1) unnamed_addr #1 align 2 personality ptr @__gxx_personality_v0 {
  %3 = alloca ptr, align 8
  %4 = alloca ptr, align 8
  %5 = alloca ptr, align 8
  %6 = alloca i32, align 4
  store ptr %0, ptr %3, align 8, !tbaa !3
  store ptr %1, ptr %4, align 8, !tbaa !3
  %7 = load ptr, ptr %3, align 8
  %8 = load ptr, ptr %4, align 8, !tbaa !3
  call void @_ZN6icu_777UObjectC2ERKS0_(ptr noundef nonnull align 8 dereferenceable(8) %7, ptr noundef nonnull align 8 dereferenceable(8) %8) #9
  store ptr getelementptr inbounds inrange(-16, 24) ({ [5 x ptr] }, ptr @_ZTVN6icu_7710NormalizerE, i32 0, i32 0, i32 2), ptr %7, align 8, !tbaa !12
  %9 = getelementptr inbounds nuw %"class.icu_77::Normalizer", ptr %7, i32 0, i32 1
  store ptr null, ptr %9, align 8, !tbaa !14
  %10 = getelementptr inbounds nuw %"class.icu_77::Normalizer", ptr %7, i32 0, i32 2
  store ptr null, ptr %10, align 8, !tbaa !23
  %11 = getelementptr inbounds nuw %"class.icu_77::Normalizer", ptr %7, i32 0, i32 3
  %12 = load ptr, ptr %4, align 8, !tbaa !3
  %13 = getelementptr inbounds nuw %"class.icu_77::Normalizer", ptr %12, i32 0, i32 3
  %14 = load i32, ptr %13, align 8, !tbaa !24
  store i32 %14, ptr %11, align 8, !tbaa !24
  %15 = getelementptr inbounds nuw %"class.icu_77::Normalizer", ptr %7, i32 0, i32 4
  %16 = load ptr, ptr %4, align 8, !tbaa !3
  %17 = getelementptr inbounds nuw %"class.icu_77::Normalizer", ptr %16, i32 0, i32 4
  %18 = load i32, ptr %17, align 4, !tbaa !25
  store i32 %18, ptr %15, align 4, !tbaa !25
  %19 = getelementptr inbounds nuw %"class.icu_77::Normalizer", ptr %7, i32 0, i32 5
  %20 = load ptr, ptr %4, align 8, !tbaa !3
  %21 = getelementptr inbounds nuw %"class.icu_77::Normalizer", ptr %20, i32 0, i32 5
  %22 = load ptr, ptr %21, align 8, !tbaa !26
  %23 = load ptr, ptr %22, align 8, !tbaa !12
  %24 = getelementptr inbounds ptr, ptr %23, i64 8
  %25 = load ptr, ptr %24, align 8
  %26 = invoke noundef ptr %25(ptr noundef nonnull align 8 dereferenceable(24) %22)
          to label %27 unwind label %45

27:                                               ; preds = %2
  store ptr %26, ptr %19, align 8, !tbaa !26
  %28 = getelementptr inbounds nuw %"class.icu_77::Normalizer", ptr %7, i32 0, i32 6
  %29 = load ptr, ptr %4, align 8, !tbaa !3
  %30 = getelementptr inbounds nuw %"class.icu_77::Normalizer", ptr %29, i32 0, i32 6
  %31 = load i32, ptr %30, align 8, !tbaa !27
  store i32 %31, ptr %28, align 8, !tbaa !27
  %32 = getelementptr inbounds nuw %"class.icu_77::Normalizer", ptr %7, i32 0, i32 7
  %33 = load ptr, ptr %4, align 8, !tbaa !3
  %34 = getelementptr inbounds nuw %"class.icu_77::Normalizer", ptr %33, i32 0, i32 7
  %35 = load i32, ptr %34, align 4, !tbaa !28
  store i32 %35, ptr %32, align 4, !tbaa !28
  %36 = getelementptr inbounds nuw %"class.icu_77::Normalizer", ptr %7, i32 0, i32 8
  %37 = load ptr, ptr %4, align 8, !tbaa !3
  %38 = getelementptr inbounds nuw %"class.icu_77::Normalizer", ptr %37, i32 0, i32 8
  invoke void @_ZN6icu_7713UnicodeStringC1ERKS0_(ptr noundef nonnull align 8 dereferenceable(64) %36, ptr noundef nonnull align 8 dereferenceable(64) %38)
          to label %39 unwind label %45

39:                                               ; preds = %27
  %40 = getelementptr inbounds nuw %"class.icu_77::Normalizer", ptr %7, i32 0, i32 9
  %41 = load ptr, ptr %4, align 8, !tbaa !3
  %42 = getelementptr inbounds nuw %"class.icu_77::Normalizer", ptr %41, i32 0, i32 9
  %43 = load i32, ptr %42, align 8, !tbaa !29
  store i32 %43, ptr %40, align 8, !tbaa !29
  invoke void @_ZN6icu_7710Normalizer4initEv(ptr noundef nonnull align 8 dereferenceable(116) %7)
          to label %44 unwind label %49

44:                                               ; preds = %39
  ret void

45:                                               ; preds = %27, %2
  %46 = landingpad { ptr, i32 }
          cleanup
  %47 = extractvalue { ptr, i32 } %46, 0
  store ptr %47, ptr %5, align 8
  %48 = extractvalue { ptr, i32 } %46, 1
  store i32 %48, ptr %6, align 4
  br label %53

49:                                               ; preds = %39
  %50 = landingpad { ptr, i32 }
          cleanup
  %51 = extractvalue { ptr, i32 } %50, 0
  store ptr %51, ptr %5, align 8
  %52 = extractvalue { ptr, i32 } %50, 1
  store i32 %52, ptr %6, align 4
  call void @_ZN6icu_7713UnicodeStringD1Ev(ptr noundef nonnull align 8 dereferenceable(64) %36) #9
  br label %53

53:                                               ; preds = %49, %45
  call void @_ZN6icu_777UObjectD2Ev(ptr noundef nonnull align 8 dereferenceable(8) %7) #9
  br label %54

54:                                               ; preds = %53
  %55 = load ptr, ptr %5, align 8
  %56 = load i32, ptr %6, align 4
  %57 = insertvalue { ptr, i32 } poison, ptr %55, 0
  %58 = insertvalue { ptr, i32 } %57, i32 %56, 1
  resume { ptr, i32 } %58
}