; Function Attrs: mustprogress uwtable
define void @_ZN6icu_7710NormalizerC2ERKS0_(ptr noundef nonnull align 8 dereferenceable(116) initializes((0, 32)) %0, ptr noundef nonnull align 8 dereferenceable(116) %1) unnamed_addr #1 align 2 personality ptr @__gxx_personality_v0 {
  store ptr getelementptr inbounds nuw inrange(-16, 24) (i8, ptr @_ZTVN6icu_7710NormalizerE, i64 16), ptr %0, align 8, !tbaa !3
  %3 = getelementptr inbounds nuw i8, ptr %0, i64 8
  %4 = getelementptr inbounds nuw i8, ptr %0, i64 24
  %5 = getelementptr inbounds nuw i8, ptr %1, i64 24
  tail call void @llvm.memset.p0.i64(ptr noundef nonnull align 8 dereferenceable(16) %3, i8 0, i64 16, i1 false)
  %6 = load i32, ptr %5, align 8, !tbaa !6
  store i32 %6, ptr %4, align 8, !tbaa !6
  %7 = getelementptr inbounds nuw i8, ptr %0, i64 28
  %8 = getelementptr inbounds nuw i8, ptr %1, i64 28
  %9 = load i32, ptr %8, align 4, !tbaa !18
  store i32 %9, ptr %7, align 4, !tbaa !18
  %10 = getelementptr inbounds nuw i8, ptr %1, i64 32
  %11 = load ptr, ptr %10, align 8, !tbaa !19
  %12 = load ptr, ptr %11, align 8, !tbaa !3
  %13 = getelementptr inbounds nuw i8, ptr %12, i64 64
  %14 = load ptr, ptr %13, align 8
  %15 = invoke noundef ptr %14(ptr noundef nonnull align 8 dereferenceable(24) %11)
          to label %16 unwind label %31

16:                                               ; preds = %2
  %17 = getelementptr inbounds nuw i8, ptr %0, i64 32
  store ptr %15, ptr %17, align 8, !tbaa !19
  %18 = getelementptr inbounds nuw i8, ptr %0, i64 40
  %19 = getelementptr inbounds nuw i8, ptr %1, i64 40
  %20 = load i32, ptr %19, align 8, !tbaa !20
  store i32 %20, ptr %18, align 8, !tbaa !20
  %21 = getelementptr inbounds nuw i8, ptr %0, i64 44
  %22 = getelementptr inbounds nuw i8, ptr %1, i64 44
  %23 = load i32, ptr %22, align 4, !tbaa !21
  store i32 %23, ptr %21, align 4, !tbaa !21
  %24 = getelementptr inbounds nuw i8, ptr %0, i64 48
  %25 = getelementptr inbounds nuw i8, ptr %1, i64 48
  invoke void @_ZN6icu_7713UnicodeStringC1ERKS0_(ptr noundef nonnull align 8 dereferenceable(64) %24, ptr noundef nonnull align 8 dereferenceable(64) %25)
          to label %26 unwind label %31

26:                                               ; preds = %16
  %27 = getelementptr inbounds nuw i8, ptr %0, i64 112
  %28 = getelementptr inbounds nuw i8, ptr %1, i64 112
  %29 = load i32, ptr %28, align 8, !tbaa !23
  store i32 %29, ptr %27, align 8, !tbaa !23
  invoke void @_ZN6icu_7710Normalizer4initEv(ptr noundef nonnull align 8 dereferenceable(116) %0)
          to label %30 unwind label %33

30:                                               ; preds = %26
  ret void

31:                                               ; preds = %16, %2
  %32 = landingpad { ptr, i32 }
          cleanup
  br label %35

33:                                               ; preds = %26
  %34 = landingpad { ptr, i32 }
          cleanup
  tail call void @_ZN6icu_7713UnicodeStringD1Ev(ptr noundef nonnull align 8 dereferenceable(64) %24) #10
  br label %35

35:                                               ; preds = %33, %31
  %.pn = phi { ptr, i32 } [ %34, %33 ], [ %32, %31 ]
  tail call void @_ZN6icu_777UObjectD2Ev(ptr noundef nonnull align 8 dereferenceable(8) %0) #10
  resume { ptr, i32 } %.pn
}